; ModuleID = '51/161.c'
source_filename = "51/161.c"
target datalayout = "e-m:e-p270:32:32-p271:32:32-p272:64:64-i64:64-f80:128-n8:16:32:64-S128"
target triple = "x86_64-pc-linux-gnu"

@.str = private unnamed_addr constant [3 x i8] c"NO\00", align 1
@.str.1 = private unnamed_addr constant [4 x i8] c"%d\0A\00", align 1
@.str.2 = private unnamed_addr constant [4 x i8] c"%s\0A\00", align 1
@.str.3 = private unnamed_addr constant [5 x i8] c"%d%s\00", align 1

; Function Attrs: noinline nounwind uwtable
define dso_local void @ngram(i8* %0, i32 %1) #0 {
  %3 = alloca i8*, align 8
  %4 = alloca i32, align 4
  %5 = alloca [2000 x [5 x i8]], align 16
  %6 = alloca i32, align 4
  %7 = alloca i32, align 4
  %8 = alloca i32, align 4
  %9 = alloca i32, align 4
  %10 = alloca i32, align 4
  store i8* %0, i8** %3, align 8
  store i32 %1, i32* %4, align 4
  %11 = bitcast [2000 x [5 x i8]]* %5 to i8*
  call void @llvm.memset.p0i8.i64(i8* align 16 %11, i8 0, i64 10000, i1 false)
  %12 = load i8*, i8** %3, align 8
  %13 = call i64 @strlen(i8* %12) #5
  %14 = trunc i64 %13 to i32
  store i32 %14, i32* %7, align 4
  store i32 0, i32* %6, align 4
  br label %15

15:                                               ; preds = %34, %2
  %16 = load i32, i32* %6, align 4
  %17 = load i32, i32* %7, align 4
  %18 = load i32, i32* %4, align 4
  %19 = sub nsw i32 %17, %18
  %20 = add nsw i32 %19, 1
  %21 = icmp slt i32 %16, %20
  br i1 %21, label %22, label %37

22:                                               ; preds = %15
  %23 = load i32, i32* %6, align 4
  %24 = sext i32 %23 to i64
  %25 = getelementptr inbounds [2000 x [5 x i8]], [2000 x [5 x i8]]* %5, i64 0, i64 %24
  %26 = getelementptr inbounds [5 x i8], [5 x i8]* %25, i64 0, i64 0
  %27 = load i8*, i8** %3, align 8
  %28 = load i32, i32* %6, align 4
  %29 = sext i32 %28 to i64
  %30 = getelementptr inbounds i8, i8* %27, i64 %29
  %31 = load i32, i32* %4, align 4
  %32 = sext i32 %31 to i64
  %33 = call i8* @strncpy(i8* %26, i8* %30, i64 %32) #6
  br label %34

34:                                               ; preds = %22
  %35 = load i32, i32* %6, align 4
  %36 = add nsw i32 %35, 1
  store i32 %36, i32* %6, align 4
  br label %15

37:                                               ; preds = %15
  store i32 1, i32* %9, align 4
  store i32 0, i32* %6, align 4
  br label %38

38:                                               ; preds = %80, %37
  %39 = load i32, i32* %6, align 4
  %40 = load i32, i32* %7, align 4
  %41 = load i32, i32* %4, align 4
  %42 = sub nsw i32 %40, %41
  %43 = add nsw i32 %42, 1
  %44 = icmp slt i32 %39, %43
  br i1 %44, label %45, label %83

45:                                               ; preds = %38
  store i32 1, i32* %10, align 4
  %46 = load i32, i32* %6, align 4
  %47 = add nsw i32 %46, 1
  store i32 %47, i32* %8, align 4
  br label %48

48:                                               ; preds = %70, %45
  %49 = load i32, i32* %8, align 4
  %50 = load i32, i32* %7, align 4
  %51 = load i32, i32* %4, align 4
  %52 = sub nsw i32 %50, %51
  %53 = add nsw i32 %52, 1
  %54 = icmp slt i32 %49, %53
  br i1 %54, label %55, label %73

55:                                               ; preds = %48
  %56 = load i32, i32* %6, align 4
  %57 = sext i32 %56 to i64
  %58 = getelementptr inbounds [2000 x [5 x i8]], [2000 x [5 x i8]]* %5, i64 0, i64 %57
  %59 = getelementptr inbounds [5 x i8], [5 x i8]* %58, i64 0, i64 0
  %60 = load i32, i32* %8, align 4
  %61 = sext i32 %60 to i64
  %62 = getelementptr inbounds [2000 x [5 x i8]], [2000 x [5 x i8]]* %5, i64 0, i64 %61
  %63 = getelementptr inbounds [5 x i8], [5 x i8]* %62, i64 0, i64 0
  %64 = call i32 @strcmp(i8* %59, i8* %63) #5
  %65 = icmp eq i32 %64, 0
  br i1 %65, label %66, label %69

66:                                               ; preds = %55
  %67 = load i32, i32* %10, align 4
  %68 = add nsw i32 %67, 1
  store i32 %68, i32* %10, align 4
  br label %69

69:                                               ; preds = %66, %55
  br label %70

70:                                               ; preds = %69
  %71 = load i32, i32* %8, align 4
  %72 = add nsw i32 %71, 1
  store i32 %72, i32* %8, align 4
  br label %48

73:                                               ; preds = %48
  %74 = load i32, i32* %10, align 4
  %75 = load i32, i32* %9, align 4
  %76 = icmp sge i32 %74, %75
  br i1 %76, label %77, label %79

77:                                               ; preds = %73
  %78 = load i32, i32* %10, align 4
  store i32 %78, i32* %9, align 4
  br label %79

79:                                               ; preds = %77, %73
  br label %80

80:                                               ; preds = %79
  %81 = load i32, i32* %6, align 4
  %82 = add nsw i32 %81, 1
  store i32 %82, i32* %6, align 4
  br label %38

83:                                               ; preds = %38
  %84 = load i32, i32* %9, align 4
  %85 = icmp eq i32 %84, 1
  br i1 %85, label %86, label %88

86:                                               ; preds = %83
  %87 = call i32 (i8*, ...) @printf(i8* getelementptr inbounds ([3 x i8], [3 x i8]* @.str, i64 0, i64 0))
  br label %141

88:                                               ; preds = %83
  %89 = load i32, i32* %9, align 4
  %90 = call i32 (i8*, ...) @printf(i8* getelementptr inbounds ([4 x i8], [4 x i8]* @.str.1, i64 0, i64 0), i32 %89)
  store i32 0, i32* %6, align 4
  br label %91

91:                                               ; preds = %137, %88
  %92 = load i32, i32* %6, align 4
  %93 = load i32, i32* %7, align 4
  %94 = load i32, i32* %4, align 4
  %95 = sub nsw i32 %93, %94
  %96 = add nsw i32 %95, 1
  %97 = icmp slt i32 %92, %96
  br i1 %97, label %98, label %140

98:                                               ; preds = %91
  store i32 1, i32* %10, align 4
  %99 = load i32, i32* %6, align 4
  %100 = add nsw i32 %99, 1
  store i32 %100, i32* %8, align 4
  br label %101

101:                                              ; preds = %123, %98
  %102 = load i32, i32* %8, align 4
  %103 = load i32, i32* %7, align 4
  %104 = load i32, i32* %4, align 4
  %105 = sub nsw i32 %103, %104
  %106 = add nsw i32 %105, 1
  %107 = icmp slt i32 %102, %106
  br i1 %107, label %108, label %126

108:                                              ; preds = %101
  %109 = load i32, i32* %6, align 4
  %110 = sext i32 %109 to i64
  %111 = getelementptr inbounds [2000 x [5 x i8]], [2000 x [5 x i8]]* %5, i64 0, i64 %110
  %112 = getelementptr inbounds [5 x i8], [5 x i8]* %111, i64 0, i64 0
  %113 = load i32, i32* %8, align 4
  %114 = sext i32 %113 to i64
  %115 = getelementptr inbounds [2000 x [5 x i8]], [2000 x [5 x i8]]* %5, i64 0, i64 %114
  %116 = getelementptr inbounds [5 x i8], [5 x i8]* %115, i64 0, i64 0
  %117 = call i32 @strcmp(i8* %112, i8* %116) #5
  %118 = icmp eq i32 %117, 0
  br i1 %118, label %119, label %122

119:                                              ; preds = %108
  %120 = load i32, i32* %10, align 4
  %121 = add nsw i32 %120, 1
  store i32 %121, i32* %10, align 4
  br label %122

122:                                              ; preds = %119, %108
  br label %123

123:                                              ; preds = %122
  %124 = load i32, i32* %8, align 4
  %125 = add nsw i32 %124, 1
  store i32 %125, i32* %8, align 4
  br label %101

126:                                              ; preds = %101
  %127 = load i32, i32* %10, align 4
  %128 = load i32, i32* %9, align 4
  %129 = icmp eq i32 %127, %128
  br i1 %129, label %130, label %136

130:                                              ; preds = %126
  %131 = load i32, i32* %6, align 4
  %132 = sext i32 %131 to i64
  %133 = getelementptr inbounds [2000 x [5 x i8]], [2000 x [5 x i8]]* %5, i64 0, i64 %132
  %134 = getelementptr inbounds [5 x i8], [5 x i8]* %133, i64 0, i64 0
  %135 = call i32 (i8*, ...) @printf(i8* getelementptr inbounds ([4 x i8], [4 x i8]* @.str.2, i64 0, i64 0), i8* %134)
  br label %136

136:                                              ; preds = %130, %126
  br label %137

137:                                              ; preds = %136
  %138 = load i32, i32* %6, align 4
  %139 = add nsw i32 %138, 1
  store i32 %139, i32* %6, align 4
  br label %91

140:                                              ; preds = %91
  br label %141

141:                                              ; preds = %140, %86
  ret void
}

; Function Attrs: argmemonly nounwind willreturn
declare void @llvm.memset.p0i8.i64(i8* nocapture writeonly, i8, i64, i1 immarg) #1

; Function Attrs: nounwind readonly
declare dso_local i64 @strlen(i8*) #2

; Function Attrs: nounwind
declare dso_local i8* @strncpy(i8*, i8*, i64) #3

; Function Attrs: nounwind readonly
declare dso_local i32 @strcmp(i8*, i8*) #2

declare dso_local i32 @printf(i8*, ...) #4

; Function Attrs: noinline nounwind uwtable
define dso_local void @main() #0 {
  %1 = alloca i32, align 4
  %2 = alloca [500 x i8], align 16
  %3 = getelementptr inbounds [500 x i8], [500 x i8]* %2, i64 0, i64 0
  %4 = call i32 (i8*, ...) @__isoc99_scanf(i8* getelementptr inbounds ([5 x i8], [5 x i8]* @.str.3, i64 0, i64 0), i32* %1, i8* %3)
  %5 = getelementptr inbounds [500 x i8], [500 x i8]* %2, i64 0, i64 0
  %6 = load i32, i32* %1, align 4
  call void @ngram(i8* %5, i32 %6)
  ret void
}

declare dso_local i32 @__isoc99_scanf(i8*, ...) #4


!llvm.module.flags = !{!0}
!llvm.ident = !{!1}

!0 = !{i32 1, !"wchar_size", i32 4}
!1 = !{!"clang version 10.0.0-4ubuntu1 "}
